target datalayout = "e-m:e-p270:32:32-p271:32:32-p272:64:64-i64:64-i128:128-f80:128-n8:16:32:64-S128"
target triple = "x86_64-pc-linux-gnu"

%struct.darktable_t = type { %struct.dt_codepath_t, i32, i32, ptr, ptr, ptr, ptr, ptr, ptr, ptr, ptr, ptr, ptr, ptr, ptr, ptr, ptr, ptr, ptr, ptr, ptr, ptr, ptr, ptr, ptr, ptr, ptr, ptr, ptr, ptr, [64 x %struct.dt_pthread_mutex_t], %struct.dt_pthread_mutex_t, %struct.dt_pthread_mutex_t, %struct.dt_pthread_mutex_t, %struct.dt_pthread_mutex_t, %struct.dt_pthread_mutex_t, ptr, ptr, ptr, ptr, ptr, ptr, ptr, ptr, ptr, ptr, ptr, ptr, ptr, %struct.dt_lua_state_t, ptr, double, ptr, i32, [47 x i32], i32, i32, ptr, ptr, %struct.dt_sys_resources_t, %struct.dt_backthumb_t, %struct.dt_gimp_t }
%struct.dt_codepath_t = type { i8, [3 x i8] }
%struct.dt_pthread_mutex_t = type { %union.pthread_mutex_t }
%union.pthread_mutex_t = type { %struct.__pthread_mutex_s }
%struct.__pthread_mutex_s = type { i32, i32, i32, i32, i32, i16, i16, %struct.__pthread_internal_list }
%struct.__pthread_internal_list = type { ptr, ptr }
%struct.dt_lua_state_t = type { i32 }
%struct.dt_sys_resources_t = type { i64, i64, ptr, ptr, i32 }
%struct.dt_backthumb_t = type { double, double, i32, i32, i32, i32 }
%struct.dt_gimp_t = type { i32, ptr, ptr, i32, i32 }
%struct._GdkRGBA = type { double, double, double, double }
%struct.dt_gui_gtk_t = type { ptr, %struct.dt_gui_widgets_t, %struct.dt_gui_scrollbars_t, i32, ptr, i32, [39 x %struct._GdkRGBA], i32, i32, i32, i32, i32, double, double, double, double, ptr, double, double, double, double, i32, i32, [4096 x i8], i32, i32, i32, %struct.dt_pthread_mutex_t }
%struct.dt_gui_widgets_t = type { ptr, ptr, ptr, ptr, i32, i32, i32 }
%struct.dt_gui_scrollbars_t = type { ptr, ptr, i32 }
%struct.dt_ui_t = type { [16 x ptr], [6 x ptr], ptr, ptr, ptr, ptr, ptr, ptr, ptr }
%struct.result_t = type { i32, ptr, ptr, ptr, ptr, ptr }

@darktable = external global %struct.darktable_t, align 8
@.str.20 = private unnamed_addr constant [10 x i8] c"darktable\00", align 1
@.str.67 = private unnamed_addr constant [8 x i8] c"clicked\00", align 1
@.str.86 = private unnamed_addr constant [8 x i8] c"destroy\00", align 1

; Function Attrs: nounwind uwtable
define ptr @dt_ui_main_window(ptr noundef %0) #0 {
  %2 = alloca ptr, align 8
  store ptr %0, ptr %2, align 8, !tbaa !76
  %3 = load ptr, ptr %2, align 8, !tbaa !76
  %4 = getelementptr inbounds nuw %struct.dt_ui_t, ptr %3, i32 0, i32 5
  %5 = load ptr, ptr %4, align 8, !tbaa !77
  ret ptr %5
}

; Function Attrs: nounwind uwtable
define ptr @dt_gui_show_standalone_string_dialog(ptr noundef %0, ptr noundef %1, ptr noundef %2, ptr noundef %3, ptr noundef %4) #0 {
  %6 = alloca ptr, align 8
  %7 = alloca ptr, align 8
  %8 = alloca ptr, align 8
  %9 = alloca ptr, align 8
  %10 = alloca ptr, align 8
  %11 = alloca ptr, align 8
  %12 = alloca ptr, align 8
  %13 = alloca ptr, align 8
  %14 = alloca ptr, align 8
  %15 = alloca ptr, align 8
  %16 = alloca ptr, align 8
  %17 = alloca ptr, align 8
  %18 = alloca %struct.result_t, align 8
  %19 = alloca ptr, align 8
  %20 = alloca i32, align 4
  store ptr %0, ptr %7, align 8, !tbaa !11
  store ptr %1, ptr %8, align 8, !tbaa !11
  store ptr %2, ptr %9, align 8, !tbaa !11
  store ptr %3, ptr %10, align 8, !tbaa !11
  store ptr %4, ptr %11, align 8, !tbaa !11
  call void @llvm.lifetime.start.p0(i64 8, ptr %12) #15
  %21 = call ptr @gtk_window_new(i32 noundef 0)
  store ptr %21, ptr %12, align 8, !tbaa !6
  %22 = load ptr, ptr %12, align 8, !tbaa !6
  %23 = call i64 @gtk_window_get_type() #16
  %24 = call ptr @g_type_check_instance_cast(ptr noundef %22, i64 noundef %23)
  call void @gtk_window_set_icon_name(ptr noundef %24, ptr noundef @.str.20)
  %25 = load ptr, ptr %12, align 8, !tbaa !6
  %26 = call i64 @gtk_window_get_type() #16
  %27 = call ptr @g_type_check_instance_cast(ptr noundef %25, i64 noundef %26)
  %28 = load ptr, ptr %7, align 8, !tbaa !11
  call void @gtk_window_set_title(ptr noundef %27, ptr noundef %28)
  %29 = load ptr, ptr %12, align 8, !tbaa !6
  %30 = call i64 @g_signal_connect_data(ptr noundef %29, ptr noundef @.str.86, ptr noundef @gtk_main_quit, ptr noundef null, ptr noundef null, i32 noundef 0)
  %31 = load ptr, ptr getelementptr inbounds nuw (%struct.darktable_t, ptr @darktable, i32 0, i32 14), align 8, !tbaa !24
  %32 = icmp ne ptr %31, null
  br i1 %32, label %33, label %58

33:                                               ; preds = %5
  call void @llvm.lifetime.start.p0(i64 8, ptr %13) #15
  %34 = load ptr, ptr getelementptr inbounds nuw (%struct.darktable_t, ptr @darktable, i32 0, i32 14), align 8, !tbaa !24
  %35 = getelementptr inbounds nuw %struct.dt_gui_gtk_t, ptr %34, i32 0, i32 0
  %36 = load ptr, ptr %35, align 8, !tbaa !72
  %37 = call ptr @dt_ui_main_window(ptr noundef %36)
  %38 = call i64 @gtk_window_get_type() #16
  %39 = call ptr @g_type_check_instance_cast(ptr noundef %37, i64 noundef %38)
  store ptr %39, ptr %13, align 8, !tbaa !237
  %40 = load ptr, ptr %12, align 8, !tbaa !6
  %41 = call i64 @gtk_window_get_type() #16
  %42 = call ptr @g_type_check_instance_cast(ptr noundef %40, i64 noundef %41)
  %43 = load ptr, ptr %13, align 8, !tbaa !237
  call void @gtk_window_set_transient_for(ptr noundef %42, ptr noundef %43)
  %44 = load ptr, ptr %13, align 8, !tbaa !237
  %45 = call i64 @gtk_widget_get_type() #16
  %46 = call ptr @g_type_check_instance_cast(ptr noundef %44, i64 noundef %45)
  %47 = call i32 @gtk_widget_get_visible(ptr noundef %46)
  %48 = icmp ne i32 %47, 0
  br i1 %48, label %49, label %53

49:                                               ; preds = %33
  %50 = load ptr, ptr %12, align 8, !tbaa !6
  %51 = call i64 @gtk_window_get_type() #16
  %52 = call ptr @g_type_check_instance_cast(ptr noundef %50, i64 noundef %51)
  call void @gtk_window_set_position(ptr noundef %52, i32 noundef 4)
  br label %57

53:                                               ; preds = %33
  %54 = load ptr, ptr %12, align 8, !tbaa !6
  %55 = call i64 @gtk_window_get_type() #16
  %56 = call ptr @g_type_check_instance_cast(ptr noundef %54, i64 noundef %55)
  call void @gtk_window_set_position(ptr noundef %56, i32 noundef 2)
  br label %57

57:                                               ; preds = %53, %49
  call void @llvm.lifetime.end.p0(i64 8, ptr %13) #15
  br label %62

58:                                               ; preds = %5
  %59 = load ptr, ptr %12, align 8, !tbaa !6
  %60 = call i64 @gtk_window_get_type() #16
  %61 = call ptr @g_type_check_instance_cast(ptr noundef %59, i64 noundef %60)
  call void @gtk_window_set_position(ptr noundef %61, i32 noundef 2)
  br label %62

62:                                               ; preds = %58, %57
  call void @llvm.lifetime.start.p0(i64 8, ptr %14) #15
  %63 = call ptr @gtk_box_new(i32 noundef 1, i32 noundef 5)
  store ptr %63, ptr %14, align 8, !tbaa !6
  %64 = load ptr, ptr %14, align 8, !tbaa !6
  call void @gtk_widget_set_margin_start(ptr noundef %64, i32 noundef 10)
  %65 = load ptr, ptr %14, align 8, !tbaa !6
  call void @gtk_widget_set_margin_end(ptr noundef %65, i32 noundef 10)
  %66 = load ptr, ptr %14, align 8, !tbaa !6
  call void @gtk_widget_set_margin_top(ptr noundef %66, i32 noundef 7)
  %67 = load ptr, ptr %14, align 8, !tbaa !6
  call void @gtk_widget_set_margin_bottom(ptr noundef %67, i32 noundef 5)
  %68 = load ptr, ptr %12, align 8, !tbaa !6
  %69 = call i64 @gtk_container_get_type() #16
  %70 = call ptr @g_type_check_instance_cast(ptr noundef %68, i64 noundef %69)
  %71 = load ptr, ptr %14, align 8, !tbaa !6
  call void @gtk_container_add(ptr noundef %70, ptr noundef %71)
  call void @llvm.lifetime.start.p0(i64 8, ptr %15) #15
  %72 = call ptr @gtk_label_new(ptr noundef null)
  store ptr %72, ptr %15, align 8, !tbaa !6
  %73 = load ptr, ptr %15, align 8, !tbaa !6
  %74 = call i64 @gtk_label_get_type() #16
  %75 = call ptr @g_type_check_instance_cast(ptr noundef %73, i64 noundef %74)
  %76 = load ptr, ptr %8, align 8, !tbaa !11
  call void @gtk_label_set_markup(ptr noundef %75, ptr noundef %76)
  %77 = load ptr, ptr %14, align 8, !tbaa !6
  %78 = call i64 @gtk_box_get_type() #16
  %79 = call ptr @g_type_check_instance_cast(ptr noundef %77, i64 noundef %78)
  %80 = load ptr, ptr %15, align 8, !tbaa !6
  call void @gtk_box_pack_start(ptr noundef %79, ptr noundef %80, i32 noundef 1, i32 noundef 1, i32 noundef 0)
  call void @llvm.lifetime.start.p0(i64 8, ptr %16) #15
  %81 = call ptr @gtk_entry_new()
  store ptr %81, ptr %16, align 8, !tbaa !6
  %82 = load ptr, ptr %16, align 8, !tbaa !6
  %83 = call ptr @g_object_ref(ptr noundef %82)
  %84 = load ptr, ptr %9, align 8, !tbaa !11
  %85 = icmp ne ptr %84, null
  br i1 %85, label %86, label %91

86:                                               ; preds = %62
  %87 = load ptr, ptr %16, align 8, !tbaa !6
  %88 = call i64 @gtk_entry_get_type() #16
  %89 = call ptr @g_type_check_instance_cast(ptr noundef %87, i64 noundef %88)
  %90 = load ptr, ptr %9, align 8, !tbaa !11
  call void @gtk_entry_set_placeholder_text(ptr noundef %89, ptr noundef %90)
  br label %91

91:                                               ; preds = %86, %62
  %92 = load ptr, ptr %14, align 8, !tbaa !6
  %93 = call i64 @gtk_box_get_type() #16
  %94 = call ptr @g_type_check_instance_cast(ptr noundef %92, i64 noundef %93)
  %95 = load ptr, ptr %16, align 8, !tbaa !6
  call void @gtk_box_pack_start(ptr noundef %94, ptr noundef %95, i32 noundef 1, i32 noundef 1, i32 noundef 0)
  call void @llvm.lifetime.start.p0(i64 8, ptr %17) #15
  %96 = call ptr @gtk_box_new(i32 noundef 0, i32 noundef 5)
  store ptr %96, ptr %17, align 8, !tbaa !6
  %97 = load ptr, ptr %17, align 8, !tbaa !6
  call void @gtk_widget_set_margin_top(ptr noundef %97, i32 noundef 10)
  %98 = load ptr, ptr %14, align 8, !tbaa !6
  %99 = call i64 @gtk_box_get_type() #16
  %100 = call ptr @g_type_check_instance_cast(ptr noundef %98, i64 noundef %99)
  %101 = load ptr, ptr %17, align 8, !tbaa !6
  call void @gtk_box_pack_start(ptr noundef %100, ptr noundef %101, i32 noundef 1, i32 noundef 1, i32 noundef 0)
  call void @llvm.lifetime.start.p0(i64 48, ptr %18) #15
  %102 = getelementptr inbounds nuw %struct.result_t, ptr %18, i32 0, i32 0
  store i32 0, ptr %102, align 8, !tbaa !259
  %103 = getelementptr i8, ptr %18, i64 4
  call void @llvm.memset.p0.i64(ptr align 4 %103, i8 0, i64 4, i1 false)
  %104 = getelementptr inbounds nuw %struct.result_t, ptr %18, i32 0, i32 1
  store ptr null, ptr %104, align 8, !tbaa !269
  %105 = getelementptr inbounds nuw %struct.result_t, ptr %18, i32 0, i32 2
  %106 = load ptr, ptr %12, align 8, !tbaa !6
  store ptr %106, ptr %105, align 8, !tbaa !261
  %107 = getelementptr inbounds nuw %struct.result_t, ptr %18, i32 0, i32 3
  %108 = load ptr, ptr %16, align 8, !tbaa !6
  store ptr %108, ptr %107, align 8, !tbaa !268
  %109 = getelementptr inbounds nuw %struct.result_t, ptr %18, i32 0, i32 4
  store ptr null, ptr %109, align 8, !tbaa !263
  %110 = getelementptr inbounds nuw %struct.result_t, ptr %18, i32 0, i32 5
  store ptr null, ptr %110, align 8, !tbaa !262
  call void @llvm.lifetime.start.p0(i64 8, ptr %19) #15
  %111 = load ptr, ptr %10, align 8, !tbaa !11
  %112 = icmp ne ptr %111, null
  br i1 %112, label %113, label %125

113:                                              ; preds = %91
  %114 = load ptr, ptr %10, align 8, !tbaa !11
  %115 = call ptr @gtk_button_new_with_label(ptr noundef %114)
  store ptr %115, ptr %19, align 8, !tbaa !6
  %116 = load ptr, ptr %19, align 8, !tbaa !6
  %117 = getelementptr inbounds nuw %struct.result_t, ptr %18, i32 0, i32 5
  store ptr %116, ptr %117, align 8, !tbaa !262
  %118 = load ptr, ptr %19, align 8, !tbaa !6
  %119 = call ptr @g_type_check_instance_cast(ptr noundef %118, i64 noundef 80)
  %120 = call i64 @g_signal_connect_data(ptr noundef %119, ptr noundef @.str.67, ptr noundef @_yes_no_button_handler, ptr noundef %18, ptr noundef null, i32 noundef 0)
  %121 = load ptr, ptr %17, align 8, !tbaa !6
  %122 = call i64 @gtk_box_get_type() #16
  %123 = call ptr @g_type_check_instance_cast(ptr noundef %121, i64 noundef %122)
  %124 = load ptr, ptr %19, align 8, !tbaa !6
  call void @gtk_box_pack_start(ptr noundef %123, ptr noundef %124, i32 noundef 1, i32 noundef 1, i32 noundef 0)
  br label %125

125:                                              ; preds = %113, %91
  %126 = load ptr, ptr %11, align 8, !tbaa !11
  %127 = icmp ne ptr %126, null
  br i1 %127, label %128, label %140

128:                                              ; preds = %125
  %129 = load ptr, ptr %11, align 8, !tbaa !11
  %130 = call ptr @gtk_button_new_with_label(ptr noundef %129)
  store ptr %130, ptr %19, align 8, !tbaa !6
  %131 = load ptr, ptr %19, align 8, !tbaa !6
  %132 = getelementptr inbounds nuw %struct.result_t, ptr %18, i32 0, i32 4
  store ptr %131, ptr %132, align 8, !tbaa !263
  %133 = load ptr, ptr %19, align 8, !tbaa !6
  %134 = call ptr @g_type_check_instance_cast(ptr noundef %133, i64 noundef 80)
  %135 = call i64 @g_signal_connect_data(ptr noundef %134, ptr noundef @.str.67, ptr noundef @_yes_no_button_handler, ptr noundef %18, ptr noundef null, i32 noundef 0)
  %136 = load ptr, ptr %17, align 8, !tbaa !6
  %137 = call i64 @gtk_box_get_type() #16
  %138 = call ptr @g_type_check_instance_cast(ptr noundef %136, i64 noundef %137)
  %139 = load ptr, ptr %19, align 8, !tbaa !6
  call void @gtk_box_pack_start(ptr noundef %138, ptr noundef %139, i32 noundef 1, i32 noundef 1, i32 noundef 0)
  br label %140

140:                                              ; preds = %128, %125
  %141 = load ptr, ptr %12, align 8, !tbaa !6
  call void @gtk_widget_show_all(ptr noundef %141)
  call void @gtk_main()
  %142 = getelementptr inbounds nuw %struct.result_t, ptr %18, i32 0, i32 0
  %143 = load i32, ptr %142, align 8, !tbaa !259
  %144 = icmp eq i32 %143, 2
  br i1 %144, label %145, label %148

145:                                              ; preds = %140
  %146 = getelementptr inbounds nuw %struct.result_t, ptr %18, i32 0, i32 1
  %147 = load ptr, ptr %146, align 8, !tbaa !269
  store ptr %147, ptr %6, align 8
  store i32 1, ptr %20, align 4
  br label %151

148:                                              ; preds = %140
  %149 = getelementptr inbounds nuw %struct.result_t, ptr %18, i32 0, i32 1
  %150 = load ptr, ptr %149, align 8, !tbaa !269
  call void @g_free(ptr noundef %150)
  store ptr null, ptr %6, align 8
  store i32 1, ptr %20, align 4
  br label %151

151:                                              ; preds = %148, %145
  call void @llvm.lifetime.end.p0(i64 8, ptr %19) #15
  call void @llvm.lifetime.end.p0(i64 48, ptr %18) #15
  call void @llvm.lifetime.end.p0(i64 8, ptr %17) #15
  call void @llvm.lifetime.end.p0(i64 8, ptr %16) #15
  call void @llvm.lifetime.end.p0(i64 8, ptr %15) #15
  call void @llvm.lifetime.end.p0(i64 8, ptr %14) #15
  call void @llvm.lifetime.end.p0(i64 8, ptr %12) #15
  %152 = load ptr, ptr %6, align 8
  ret ptr %152
}