; Function Attrs: nounwind uwtable
define ptr @dt_gui_show_standalone_string_dialog(ptr noundef %0, ptr noundef %1, ptr noundef %2, ptr noundef %3, ptr noundef %4) local_unnamed_addr #0 {
  %6 = alloca %struct.result_t, align 8
  %7 = tail call ptr @gtk_window_new(i32 noundef 0) #18
  %8 = tail call i64 @gtk_window_get_type() #19
  %9 = tail call ptr @g_type_check_instance_cast(ptr noundef %7, i64 noundef %8) #18
  tail call void @gtk_window_set_icon_name(ptr noundef %9, ptr noundef nonnull @.str.20) #18
  %10 = tail call ptr @g_type_check_instance_cast(ptr noundef %7, i64 noundef %8) #18
  tail call void @gtk_window_set_title(ptr noundef %10, ptr noundef %0) #18
  %11 = tail call i64 @g_signal_connect_data(ptr noundef %7, ptr noundef nonnull @.str.86, ptr noundef nonnull @gtk_main_quit, ptr noundef null, ptr noundef null, i32 noundef 0) #18
  %12 = load ptr, ptr getelementptr inbounds nuw (i8, ptr @darktable, i64 104), align 8, !tbaa !15
  %.not = icmp eq ptr %12, null
  br i1 %.not, label %25, label %13

13:                                               ; preds = %5
  %14 = load ptr, ptr %12, align 8, !tbaa !63
  %15 = getelementptr inbounds nuw i8, ptr %14, i64 200
  %16 = load ptr, ptr %15, align 8, !tbaa !64
  %17 = tail call ptr @g_type_check_instance_cast(ptr noundef %16, i64 noundef %8) #18
  %18 = tail call ptr @g_type_check_instance_cast(ptr noundef %7, i64 noundef %8) #18
  tail call void @gtk_window_set_transient_for(ptr noundef %18, ptr noundef %17) #18
  %19 = tail call i64 @gtk_widget_get_type() #19
  %20 = tail call ptr @g_type_check_instance_cast(ptr noundef %17, i64 noundef %19) #18
  %21 = tail call i32 @gtk_widget_get_visible(ptr noundef %20) #18
  %.not49 = icmp eq i32 %21, 0
  %22 = tail call ptr @g_type_check_instance_cast(ptr noundef %7, i64 noundef %8) #18
  br i1 %.not49, label %24, label %23

23:                                               ; preds = %13
  tail call void @gtk_window_set_position(ptr noundef %22, i32 noundef 4) #18
  br label %27

24:                                               ; preds = %13
  tail call void @gtk_window_set_position(ptr noundef %22, i32 noundef 2) #18
  br label %27

25:                                               ; preds = %5
  %26 = tail call ptr @g_type_check_instance_cast(ptr noundef %7, i64 noundef %8) #18
  tail call void @gtk_window_set_position(ptr noundef %26, i32 noundef 2) #18
  br label %27

27:                                               ; preds = %23, %24, %25
  %28 = tail call ptr @gtk_box_new(i32 noundef 1, i32 noundef 5) #18
  tail call void @gtk_widget_set_margin_start(ptr noundef %28, i32 noundef 10) #18
  tail call void @gtk_widget_set_margin_end(ptr noundef %28, i32 noundef 10) #18
  tail call void @gtk_widget_set_margin_top(ptr noundef %28, i32 noundef 7) #18
  tail call void @gtk_widget_set_margin_bottom(ptr noundef %28, i32 noundef 5) #18
  %29 = tail call i64 @gtk_container_get_type() #19
  %30 = tail call ptr @g_type_check_instance_cast(ptr noundef %7, i64 noundef %29) #18
  tail call void @gtk_container_add(ptr noundef %30, ptr noundef %28) #18
  %31 = tail call ptr @gtk_label_new(ptr noundef null) #18
  %32 = tail call i64 @gtk_label_get_type() #19
  %33 = tail call ptr @g_type_check_instance_cast(ptr noundef %31, i64 noundef %32) #18
  tail call void @gtk_label_set_markup(ptr noundef %33, ptr noundef %1) #18
  %34 = tail call i64 @gtk_box_get_type() #19
  %35 = tail call ptr @g_type_check_instance_cast(ptr noundef %28, i64 noundef %34) #18
  tail call void @gtk_box_pack_start(ptr noundef %35, ptr noundef %31, i32 noundef 1, i32 noundef 1, i32 noundef 0) #18
  %36 = tail call ptr @gtk_entry_new() #18
  %37 = tail call ptr @g_object_ref(ptr noundef %36) #18
  %.not50 = icmp eq ptr %2, null
  br i1 %.not50, label %41, label %38

38:                                               ; preds = %27
  %39 = tail call i64 @gtk_entry_get_type() #19
  %40 = tail call ptr @g_type_check_instance_cast(ptr noundef %36, i64 noundef %39) #18
  tail call void @gtk_entry_set_placeholder_text(ptr noundef %40, ptr noundef nonnull %2) #18
  br label %41

41:                                               ; preds = %38, %27
  %42 = tail call ptr @g_type_check_instance_cast(ptr noundef %28, i64 noundef %34) #18
  tail call void @gtk_box_pack_start(ptr noundef %42, ptr noundef %36, i32 noundef 1, i32 noundef 1, i32 noundef 0) #18
  %43 = tail call ptr @gtk_box_new(i32 noundef 0, i32 noundef 5) #18
  tail call void @gtk_widget_set_margin_top(ptr noundef %43, i32 noundef 10) #18
  %44 = tail call ptr @g_type_check_instance_cast(ptr noundef %28, i64 noundef %34) #18
  tail call void @gtk_box_pack_start(ptr noundef %44, ptr noundef %43, i32 noundef 1, i32 noundef 1, i32 noundef 0) #18
  call void @llvm.lifetime.start.p0(i64 48, ptr nonnull %6) #18
  %45 = getelementptr inbounds nuw i8, ptr %6, i64 8
  %46 = getelementptr inbounds nuw i8, ptr %6, i64 16
  call void @llvm.memset.p0.i64(ptr noundef nonnull align 8 dereferenceable(16) %6, i8 0, i64 16, i1 false)
  store ptr %7, ptr %46, align 8, !tbaa !206
  %47 = getelementptr inbounds nuw i8, ptr %6, i64 24
  store ptr %36, ptr %47, align 8, !tbaa !211
  %48 = getelementptr inbounds nuw i8, ptr %6, i64 32
  %.not51 = icmp eq ptr %3, null
  call void @llvm.memset.p0.i64(ptr noundef nonnull align 8 dereferenceable(16) %48, i8 0, i64 16, i1 false)
  br i1 %.not51, label %55, label %49

49:                                               ; preds = %41
  %50 = getelementptr inbounds nuw i8, ptr %6, i64 40
  %51 = tail call ptr @gtk_button_new_with_label(ptr noundef nonnull %3) #18
  store ptr %51, ptr %50, align 8, !tbaa !208
  %52 = tail call ptr @g_type_check_instance_cast(ptr noundef %51, i64 noundef 80) #18
  %53 = call i64 @g_signal_connect_data(ptr noundef %52, ptr noundef nonnull @.str.67, ptr noundef nonnull @_yes_no_button_handler, ptr noundef nonnull %6, ptr noundef null, i32 noundef 0) #18
  %54 = call ptr @g_type_check_instance_cast(ptr noundef %43, i64 noundef %34) #18
  call void @gtk_box_pack_start(ptr noundef %54, ptr noundef %51, i32 noundef 1, i32 noundef 1, i32 noundef 0) #18
  br label %55

55:                                               ; preds = %49, %41
  %.not52 = icmp eq ptr %4, null
  br i1 %.not52, label %61, label %56

56:                                               ; preds = %55
  %57 = call ptr @gtk_button_new_with_label(ptr noundef nonnull %4) #18
  store ptr %57, ptr %48, align 8, !tbaa !209
  %58 = call ptr @g_type_check_instance_cast(ptr noundef %57, i64 noundef 80) #18
  %59 = call i64 @g_signal_connect_data(ptr noundef %58, ptr noundef nonnull @.str.67, ptr noundef nonnull @_yes_no_button_handler, ptr noundef nonnull %6, ptr noundef null, i32 noundef 0) #18
  %60 = call ptr @g_type_check_instance_cast(ptr noundef %43, i64 noundef %34) #18
  call void @gtk_box_pack_start(ptr noundef %60, ptr noundef %57, i32 noundef 1, i32 noundef 1, i32 noundef 0) #18
  br label %61

61:                                               ; preds = %56, %55
  call void @gtk_widget_show_all(ptr noundef %7) #18
  call void @gtk_main() #18
  %62 = load i32, ptr %6, align 8, !tbaa !210
  %63 = icmp eq i32 %62, 2
  %64 = load ptr, ptr %45, align 8, !tbaa !212
  br i1 %63, label %66, label %65

65:                                               ; preds = %61
  call void @g_free(ptr noundef %64) #18
  br label %66

66:                                               ; preds = %61, %65
  %.0 = phi ptr [ null, %65 ], [ %64, %61 ]
  call void @llvm.lifetime.end.p0(i64 48, ptr nonnull %6) #18
  ret ptr %.0
}